target datalayout = "e-m:e-p270:32:32-p271:32:32-p272:64:64-i64:64-i128:128-f80:128-n8:16:32:64-S128"
target triple = "x86_64-pc-linux-gnu"

; Function Attrs: nounwind uwtable
define internal zeroext i16 @crc16_reflected(ptr noundef %0, i32 noundef %1, i16 noundef zeroext %2, ptr noundef %3) #0 {
  %5 = alloca ptr, align 8
  %6 = alloca i32, align 4
  %7 = alloca i16, align 2
  %8 = alloca ptr, align 8
  %9 = alloca i32, align 4
  store ptr %0, ptr %5, align 8
  store i32 %1, ptr %6, align 4
  store i16 %2, ptr %7, align 2
  store ptr %3, ptr %8, align 8
  %10 = load i16, ptr %7, align 2
  %11 = zext i16 %10 to i32
  store i32 %11, ptr %9, align 4
  br label %12

12:                                               ; preds = %16, %4
  %13 = load i32, ptr %6, align 4
  %14 = add i32 %13, -1
  store i32 %14, ptr %6, align 4
  %15 = icmp ne i32 %13, 0
  br i1 %15, label %16, label %31

16:                                               ; preds = %12
  %17 = load ptr, ptr %8, align 8
  %18 = load i32, ptr %9, align 4
  %19 = load ptr, ptr %5, align 8
  %20 = getelementptr i8, ptr %19, i32 1
  store ptr %20, ptr %5, align 8
  %21 = load i8, ptr %19, align 1
  %22 = zext i8 %21 to i32
  %23 = xor i32 %18, %22
  %24 = and i32 %23, 255
  %25 = zext i32 %24 to i64
  %26 = getelementptr i32, ptr %17, i64 %25
  %27 = load i32, ptr %26, align 4
  %28 = load i32, ptr %9, align 4
  %29 = lshr i32 %28, 8
  %30 = xor i32 %27, %29
  store i32 %30, ptr %9, align 4
  br label %12, !llvm.loop !4

31:                                               ; preds = %12
  %32 = load i32, ptr %9, align 4
  %33 = trunc i32 %32 to i16
  ret i16 %33
}

; Function Attrs: nounwind uwtable
define zeroext i16 @crc16_ccitt(ptr noundef %0, i32 noundef %1) #0 {
  %3 = alloca ptr, align 8
  %4 = alloca i32, align 4
  store ptr %0, ptr %3, align 8
  store i32 %1, ptr %4, align 4
  %5 = load ptr, ptr %3, align 8
  %6 = load i32, ptr %4, align 4
  %7 = call zeroext i16 @crc16_reflected(ptr noundef %5, i32 noundef %6, i16 noundef zeroext -1, ptr noundef @crc16_ccitt_table_reverse)
  %8 = zext i16 %7 to i32
  %9 = xor i32 %8, 65535
  %10 = trunc i32 %9 to i16
  ret i16 %10
}